; Function Attrs: nounwind uwtable
define ptr @l_Lake_foldlUtf8M___rarg___lambda__3(i32 noundef %0, i8 noundef zeroext %1, i8 noundef zeroext %2, ptr noundef %3, ptr noundef %4, ptr noundef %5, ptr noundef %6) local_unnamed_addr #1 {
  %8 = lshr i32 %0, 6
  %9 = trunc i32 %8 to i8
  %10 = and i8 %1, %9
  %11 = or i8 %10, %2
  %12 = zext i8 %11 to i64
  %13 = shl nuw nsw i64 %12, 1
  %14 = or disjoint i64 %13, 1
  %15 = inttoptr i64 %14 to ptr
  %16 = ptrtoint ptr %3 to i64
  %17 = and i64 %16, 1
  %.not = icmp eq i64 %17, 0
  br i1 %.not, label %18, label %lean_inc.exit31

18:                                               ; preds = %7
  %.val.i = load i32, ptr %3, align 4, !tbaa !4
  %19 = icmp sgt i32 %.val.i, 0
  br i1 %19, label %20, label %22, !prof !9

20:                                               ; preds = %18
  %21 = add nuw i32 %.val.i, 1
  store i32 %21, ptr %3, align 4, !tbaa !4
  br label %lean_inc.exit31

22:                                               ; preds = %18
  %.not.i = icmp eq i32 %.val.i, 0
  br i1 %.not.i, label %lean_inc.exit31, label %23

23:                                               ; preds = %22
  tail call void @lean_inc_ref_cold(ptr noundef nonnull %3) #7
  br label %lean_inc.exit31

lean_inc.exit31:                                  ; preds = %23, %22, %20, %7
  %24 = tail call ptr @lean_apply_2(ptr noundef %3, ptr noundef %6, ptr noundef nonnull %15) #7
  %25 = ptrtoint ptr %5 to i64
  %26 = and i64 %25, 1
  %.not35 = icmp eq i64 %26, 0
  br i1 %.not35, label %27, label %lean_inc.exit

27:                                               ; preds = %lean_inc.exit31
  %.val.i32 = load i32, ptr %5, align 4, !tbaa !4
  %28 = icmp sgt i32 %.val.i32, 0
  br i1 %28, label %29, label %31, !prof !9

29:                                               ; preds = %27
  %30 = add nuw i32 %.val.i32, 1
  store i32 %30, ptr %5, align 4, !tbaa !4
  br label %lean_inc.exit

31:                                               ; preds = %27
  %.not.i33 = icmp eq i32 %.val.i32, 0
  br i1 %.not.i33, label %lean_inc.exit, label %32

32:                                               ; preds = %31
  tail call void @lean_inc_ref_cold(ptr noundef nonnull %5) #7
  br label %lean_inc.exit

lean_inc.exit:                                    ; preds = %32, %31, %29, %lean_inc.exit31
  tail call void @lean_inc_heartbeat() #7
  %33 = tail call noalias ptr @mi_malloc_small(i64 noundef 72) #7
  %34 = icmp eq ptr %33, null
  br i1 %34, label %35, label %lean_alloc_closure.exit

35:                                               ; preds = %lean_inc.exit
  tail call void @lean_internal_panic_out_of_memory() #8
  unreachable

lean_alloc_closure.exit:                          ; preds = %lean_inc.exit
  %36 = zext i8 %2 to i64
  %37 = shl nuw nsw i64 %36, 1
  %38 = or disjoint i64 %37, 1
  %39 = inttoptr i64 %38 to ptr
  %40 = zext i8 %1 to i64
  %41 = shl nuw nsw i64 %40, 1
  %42 = or disjoint i64 %41, 1
  %43 = inttoptr i64 %42 to ptr
  %44 = zext i32 %0 to i64
  %45 = shl nuw nsw i64 %44, 1
  %46 = or disjoint i64 %45, 1
  %47 = inttoptr i64 %46 to ptr
  %48 = getelementptr inbounds nuw i8, ptr %33, i64 4
  store i32 1, ptr %33, align 4, !tbaa !4
  store i32 -184549304, ptr %48, align 4
  %49 = getelementptr inbounds nuw i8, ptr %33, i64 8
  store ptr @l_Lake_foldlUtf8M___rarg___lambda__2___boxed, ptr %49, align 8, !tbaa !10
  %50 = getelementptr inbounds nuw i8, ptr %33, i64 16
  store i16 7, ptr %50, align 8, !tbaa !14
  %51 = getelementptr inbounds nuw i8, ptr %33, i64 18
  store i16 6, ptr %51, align 2, !tbaa !14
  %52 = getelementptr inbounds nuw i8, ptr %33, i64 24
  store ptr %47, ptr %52, align 8, !tbaa !10
  %53 = getelementptr inbounds nuw i8, ptr %33, i64 32
  store ptr %43, ptr %53, align 8, !tbaa !10
  %54 = getelementptr inbounds nuw i8, ptr %33, i64 40
  store ptr %39, ptr %54, align 8, !tbaa !10
  %55 = getelementptr inbounds nuw i8, ptr %33, i64 48
  store ptr %3, ptr %55, align 8, !tbaa !10
  %56 = getelementptr inbounds nuw i8, ptr %33, i64 56
  store ptr %4, ptr %56, align 8, !tbaa !10
  %57 = getelementptr inbounds nuw i8, ptr %33, i64 64
  store ptr %5, ptr %57, align 8, !tbaa !10
  %58 = tail call ptr @lean_apply_4(ptr noundef %5, ptr noundef nonnull inttoptr (i64 1 to ptr), ptr noundef nonnull inttoptr (i64 1 to ptr), ptr noundef %24, ptr noundef nonnull %33) #7
  ret ptr %58
}